; Function Attrs: mustprogress uwtable
define void @_ZN7openvdb5v11_04math9Transform8postMultERKNS1_4Mat3IdEE(ptr nocapture noundef nonnull align 8 dereferenceable(16) %this, ptr nocapture noundef nonnull readonly align 8 dereferenceable(72) %m) local_unnamed_addr #3 align 2 personality ptr @__gxx_personality_v0 {
entry:
  %mat4 = alloca %"class.openvdb::v11_0::math::Mat4", align 8
  %0 = load atomic i8, ptr @_ZGVZN7openvdb5v11_04math4Mat4IdE8identityEvE9sIdentity acquire, align 8
  %guard.uninitialized.i = icmp eq i8 %0, 0
  br i1 %guard.uninitialized.i, label %init.check.i, label %_ZN7openvdb5v11_04math4Mat4IdE8identityEv.exit, !prof !47

init.check.i:                                     ; preds = %entry
  %1 = tail call i32 @__cxa_guard_acquire(ptr nonnull @_ZGVZN7openvdb5v11_04math4Mat4IdE8identityEvE9sIdentity) #23
  %tobool.not.i = icmp eq i32 %1, 0
  br i1 %tobool.not.i, label %_ZN7openvdb5v11_04math4Mat4IdE8identityEv.exit, label %init.i

init.i:                                           ; preds = %init.check.i
  store double 1.000000e+00, ptr @_ZZN7openvdb5v11_04math4Mat4IdE8identityEvE9sIdentity, align 8
  tail call void @llvm.memset.p0.i64(ptr noundef nonnull align 8 dereferenceable(32) getelementptr inbounds (%"class.openvdb::v11_0::math::Mat4", ptr @_ZZN7openvdb5v11_04math4Mat4IdE8identityEvE9sIdentity, i64 0, i32 0, i32 0, i64 1), i8 0, i64 32, i1 false)
  store double 1.000000e+00, ptr getelementptr inbounds (%"class.openvdb::v11_0::math::Mat4", ptr @_ZZN7openvdb5v11_04math4Mat4IdE8identityEvE9sIdentity, i64 0, i32 0, i32 0, i64 5), align 8
  tail call void @llvm.memset.p0.i64(ptr noundef nonnull align 8 dereferenceable(32) getelementptr inbounds (%"class.openvdb::v11_0::math::Mat4", ptr @_ZZN7openvdb5v11_04math4Mat4IdE8identityEvE9sIdentity, i64 0, i32 0, i32 0, i64 6), i8 0, i64 32, i1 false)
  store double 1.000000e+00, ptr getelementptr inbounds (%"class.openvdb::v11_0::math::Mat4", ptr @_ZZN7openvdb5v11_04math4Mat4IdE8identityEvE9sIdentity, i64 0, i32 0, i32 0, i64 10), align 8
  tail call void @llvm.memset.p0.i64(ptr noundef nonnull align 8 dereferenceable(32) getelementptr inbounds (%"class.openvdb::v11_0::math::Mat4", ptr @_ZZN7openvdb5v11_04math4Mat4IdE8identityEvE9sIdentity, i64 0, i32 0, i32 0, i64 11), i8 0, i64 32, i1 false)
  store double 1.000000e+00, ptr getelementptr inbounds (%"class.openvdb::v11_0::math::Mat4", ptr @_ZZN7openvdb5v11_04math4Mat4IdE8identityEvE9sIdentity, i64 0, i32 0, i32 0, i64 15), align 8
  tail call void @__cxa_guard_release(ptr nonnull @_ZGVZN7openvdb5v11_04math4Mat4IdE8identityEvE9sIdentity) #23
  br label %_ZN7openvdb5v11_04math4Mat4IdE8identityEv.exit

_ZN7openvdb5v11_04math4Mat4IdE8identityEv.exit:   ; preds = %entry, %init.check.i, %init.i
  call void @llvm.memcpy.p0.p0.i64(ptr noundef nonnull align 8 dereferenceable(128) %mat4, ptr noundef nonnull align 8 dereferenceable(128) @_ZZN7openvdb5v11_04math4Mat4IdE8identityEvE9sIdentity, i64 128, i1 false)
  br label %for.cond2.preheader.i

for.cond2.preheader.i:                            ; preds = %for.cond2.preheader.i, %_ZN7openvdb5v11_04math4Mat4IdE8identityEv.exit
  %indvars.iv12.i = phi i64 [ 0, %_ZN7openvdb5v11_04math4Mat4IdE8identityEv.exit ], [ %indvars.iv.next13.i, %for.cond2.preheader.i ]
  %2 = shl nuw nsw i64 %indvars.iv12.i, 5
  %scevgep = getelementptr i8, ptr %mat4, i64 %2
  %3 = mul nuw nsw i64 %indvars.iv12.i, 24
  %scevgep1 = getelementptr i8, ptr %m, i64 %3
  call void @llvm.memcpy.p0.p0.i64(ptr noundef nonnull align 8 dereferenceable(24) %scevgep, ptr noundef nonnull align 8 dereferenceable(24) %scevgep1, i64 24, i1 false)
  %indvars.iv.next13.i = add nuw nsw i64 %indvars.iv12.i, 1
  %exitcond17.not.i = icmp eq i64 %indvars.iv.next13.i, 3
  br i1 %exitcond17.not.i, label %_ZN7openvdb5v11_04math4Mat4IdE7setMat3ERKNS1_4Mat3IdEE.exit, label %for.cond2.preheader.i, !llvm.loop !127

_ZN7openvdb5v11_04math4Mat4IdE7setMat3ERKNS1_4Mat3IdEE.exit: ; preds = %for.cond2.preheader.i
  call void @_ZN7openvdb5v11_04math9Transform8postMultERKNS1_4Mat4IdEE(ptr noundef nonnull align 8 dereferenceable(16) %this, ptr noundef nonnull align 8 dereferenceable(128) %mat4)
  ret void
}